target datalayout = "e-m:e-p270:32:32-p271:32:32-p272:64:64-i64:64-i128:128-f80:128-n8:16:32:64-S128"
target triple = "x86_64-pc-linux-gnu"

@.str.8 = private unnamed_addr constant [7 x i8] c"FT-PTK\00", align 1

; Function Attrs: nounwind uwtable
define hidden zeroext i1 @dot11decrypt_derive_ft_ptk(ptr noundef %0, i64 noundef %1, ptr noundef %2, ptr noundef %3, ptr noundef %4, ptr noundef %5, ptr noundef %6, i32 noundef %7, ptr noundef %8, i64 noundef %9, ptr noundef %10) #0 {
  %12 = alloca ptr, align 8
  %13 = alloca i64, align 8
  %14 = alloca ptr, align 8
  %15 = alloca ptr, align 8
  %16 = alloca ptr, align 8
  %17 = alloca ptr, align 8
  %18 = alloca ptr, align 8
  %19 = alloca i32, align 4
  %20 = alloca ptr, align 8
  %21 = alloca i64, align 8
  %22 = alloca ptr, align 8
  %23 = alloca [76 x i8], align 16
  %24 = alloca i32, align 4
  store ptr %0, ptr %12, align 8
  store i64 %1, ptr %13, align 8
  store ptr %2, ptr %14, align 8
  store ptr %3, ptr %15, align 8
  store ptr %4, ptr %16, align 8
  store ptr %5, ptr %17, align 8
  store ptr %6, ptr %18, align 8
  store i32 %7, ptr %19, align 4
  store ptr %8, ptr %20, align 8
  store i64 %9, ptr %21, align 8
  store ptr %10, ptr %22, align 8
  store i32 0, ptr %24, align 4
  %25 = getelementptr inbounds [76 x i8], ptr %23, i64 0, i64 0
  %26 = load i32, ptr %24, align 4
  %27 = zext i32 %26 to i64
  %28 = getelementptr i8, ptr %25, i64 %27
  %29 = load ptr, ptr %15, align 8
  call void @llvm.memcpy.p0.p0.i64(ptr align 1 %28, ptr align 1 %29, i64 32, i1 false)
  %30 = load i32, ptr %24, align 4
  %31 = add i32 %30, 32
  store i32 %31, ptr %24, align 4
  %32 = getelementptr inbounds [76 x i8], ptr %23, i64 0, i64 0
  %33 = load i32, ptr %24, align 4
  %34 = zext i32 %33 to i64
  %35 = getelementptr i8, ptr %32, i64 %34
  %36 = load ptr, ptr %16, align 8
  call void @llvm.memcpy.p0.p0.i64(ptr align 1 %35, ptr align 1 %36, i64 32, i1 false)
  %37 = load i32, ptr %24, align 4
  %38 = add i32 %37, 32
  store i32 %38, ptr %24, align 4
  %39 = getelementptr inbounds [76 x i8], ptr %23, i64 0, i64 0
  %40 = load i32, ptr %24, align 4
  %41 = zext i32 %40 to i64
  %42 = getelementptr i8, ptr %39, i64 %41
  %43 = load ptr, ptr %17, align 8
  call void @llvm.memcpy.p0.p0.i64(ptr align 1 %42, ptr align 1 %43, i64 6, i1 false)
  %44 = load i32, ptr %24, align 4
  %45 = add i32 %44, 6
  store i32 %45, ptr %24, align 4
  %46 = getelementptr inbounds [76 x i8], ptr %23, i64 0, i64 0
  %47 = load i32, ptr %24, align 4
  %48 = zext i32 %47 to i64
  %49 = getelementptr i8, ptr %46, i64 %48
  %50 = load ptr, ptr %18, align 8
  call void @llvm.memcpy.p0.p0.i64(ptr align 1 %49, ptr align 1 %50, i64 6, i1 false)
  %51 = load i32, ptr %24, align 4
  %52 = add i32 %51, 6
  store i32 %52, ptr %24, align 4
  %53 = load ptr, ptr %12, align 8
  %54 = load i64, ptr %13, align 8
  %55 = getelementptr inbounds [76 x i8], ptr %23, i64 0, i64 0
  %56 = load i32, ptr %24, align 4
  %57 = zext i32 %56 to i64
  %58 = load i32, ptr %19, align 4
  %59 = load ptr, ptr %20, align 8
  %60 = load i64, ptr %21, align 8
  %61 = call zeroext i1 @dot11decrypt_kdf(ptr noundef %53, i64 noundef %54, ptr noundef @.str.8, ptr noundef %55, i64 noundef %57, i32 noundef %58, ptr noundef %59, i64 noundef %60)
  ret i1 true
}