; Function Attrs: nounwind uwtable
define hidden noundef zeroext i1 @dot11decrypt_derive_ft_ptk(ptr noundef %0, i64 noundef %1, ptr noundef readnone captures(none) %2, ptr noundef readonly captures(none) %3, ptr noundef readonly captures(none) %4, ptr noundef readonly captures(none) %5, ptr noundef readonly captures(none) %6, i32 noundef %7, ptr noundef %8, i64 noundef %9, ptr noundef readnone captures(none) %10) local_unnamed_addr #2 {
  %12 = alloca [76 x i8], align 16
  call void @llvm.memcpy.p0.p0.i64(ptr noundef nonnull align 16 dereferenceable(32) %12, ptr noundef nonnull align 1 dereferenceable(32) %3, i64 32, i1 false)
  %13 = getelementptr inbounds nuw i8, ptr %12, i64 32
  call void @llvm.memcpy.p0.p0.i64(ptr noundef nonnull align 16 dereferenceable(32) %13, ptr noundef nonnull align 1 dereferenceable(32) %4, i64 32, i1 false)
  %14 = getelementptr inbounds nuw i8, ptr %12, i64 64
  call void @llvm.memcpy.p0.p0.i64(ptr noundef nonnull align 16 dereferenceable(6) %14, ptr noundef nonnull align 1 dereferenceable(6) %5, i64 6, i1 false)
  %15 = getelementptr inbounds nuw i8, ptr %12, i64 70
  call void @llvm.memcpy.p0.p0.i64(ptr noundef nonnull align 2 dereferenceable(6) %15, ptr noundef nonnull align 1 dereferenceable(6) %6, i64 6, i1 false)
  %16 = call zeroext i1 @dot11decrypt_kdf(ptr noundef %0, i64 noundef %1, ptr noundef nonnull @.str.8, ptr noundef nonnull %12, i64 noundef 76, i32 noundef %7, ptr noundef %8, i64 noundef %9)
  ret i1 true
}